; Function Attrs: nounwind uwtable
define hidden void @mbedtls_x509write_crt_free(ptr noundef %0) local_unnamed_addr #2 {
  %2 = icmp eq ptr %0, null
  br i1 %2, label %7, label %3

3:                                                ; preds = %1
  %4 = getelementptr inbounds nuw i8, ptr %0, i64 48
  tail call void @mbedtls_asn1_free_named_data_list(ptr noundef nonnull %4) #11
  %5 = getelementptr inbounds nuw i8, ptr %0, i64 56
  tail call void @mbedtls_asn1_free_named_data_list(ptr noundef nonnull %5) #11
  %6 = getelementptr inbounds nuw i8, ptr %0, i64 104
  tail call void @mbedtls_asn1_free_named_data_list(ptr noundef nonnull %6) #11
  tail call void @mbedtls_platform_zeroize(ptr noundef nonnull %0, i64 noundef 112) #11
  br label %7

7:                                                ; preds = %1, %3
  ret void
}